target datalayout = "e-m:e-p270:32:32-p271:32:32-p272:64:64-i64:64-i128:128-f80:128-n8:16:32:64-S128"
target triple = "x86_64-pc-linux-gnu"

%struct.AVFormatContext = type { ptr, ptr, ptr, ptr, ptr, i32, i32, ptr, i32, ptr, i32, ptr, ptr, i64, i64, i64, i32, i32, i32, i64, i64, ptr, i32, i32, ptr, i32, i32, i32, i32, ptr, i64, i32, i32, %struct.AVIOInterruptCB, i32, i32, i32, i32, i64, i32, i32, i32, i32, i32, i32, i32, i32, i32, i32, i32, i32, i64, i32, i32, i32, i32, i32, ptr, ptr, ptr, ptr, i32, ptr, ptr, ptr, ptr, i32, ptr, ptr, i64, ptr, ptr, ptr, i64 }
%struct.AVIOInterruptCB = type { ptr, ptr }
%struct.AVStream = type { ptr, i32, i32, ptr, ptr, %struct.AVRational, i64, i64, i64, i32, i32, %struct.AVRational, ptr, %struct.AVRational, %struct.AVPacket, i32, %struct.AVRational, i32 }
%struct.AVPacket = type { ptr, i64, i64, ptr, i32, i32, i32, ptr, i32, i64, i64, ptr, ptr, %struct.AVRational }
%struct.AVRational = type { i32, i32 }
%struct.OGGStreamContext = type { i32, [3 x ptr], [3 x i32], i32, i64, i32, i32, i32, i32, %struct.OGGPage, i32, i64 }
%struct.OGGPage = type { i64, i64, i32, i8, i8, [255 x i8], [65025 x i8], i16 }
%struct.OGGContext = type { ptr, ptr, i32, i64, i32 }
%struct.OGGPageList = type { %struct.OGGPage, ptr }

; Function Attrs: nounwind uwtable
define internal i32 @ogg_compare_granule(ptr noundef %0, ptr noundef %1, ptr noundef %2) #0 {
  %4 = alloca i32, align 4
  %5 = alloca ptr, align 8
  %6 = alloca ptr, align 8
  %7 = alloca ptr, align 8
  %8 = alloca ptr, align 8
  %9 = alloca ptr, align 8
  %10 = alloca i64, align 8
  %11 = alloca i64, align 8
  %12 = alloca i32, align 4
  %13 = alloca %struct.AVRational, align 4
  %14 = alloca %struct.AVRational, align 4
  store ptr %0, ptr %5, align 8, !tbaa !4
  store ptr %1, ptr %6, align 8, !tbaa !95
  store ptr %2, ptr %7, align 8, !tbaa !95
  call void @llvm.lifetime.start.p0(i64 8, ptr %8) #9
  %15 = load ptr, ptr %5, align 8, !tbaa !4
  %16 = getelementptr inbounds nuw %struct.AVFormatContext, ptr %15, i32 0, i32 7
  %17 = load ptr, ptr %16, align 8, !tbaa !29
  %18 = load ptr, ptr %6, align 8, !tbaa !95
  %19 = getelementptr inbounds nuw %struct.OGGPage, ptr %18, i32 0, i32 2
  %20 = load i32, ptr %19, align 8, !tbaa !101
  %21 = sext i32 %20 to i64
  %22 = getelementptr inbounds ptr, ptr %17, i64 %21
  %23 = load ptr, ptr %22, align 8, !tbaa !30
  store ptr %23, ptr %8, align 8, !tbaa !30
  call void @llvm.lifetime.start.p0(i64 8, ptr %9) #9
  %24 = load ptr, ptr %5, align 8, !tbaa !4
  %25 = getelementptr inbounds nuw %struct.AVFormatContext, ptr %24, i32 0, i32 7
  %26 = load ptr, ptr %25, align 8, !tbaa !29
  %27 = load ptr, ptr %7, align 8, !tbaa !95
  %28 = getelementptr inbounds nuw %struct.OGGPage, ptr %27, i32 0, i32 2
  %29 = load i32, ptr %28, align 8, !tbaa !101
  %30 = sext i32 %29 to i64
  %31 = getelementptr inbounds ptr, ptr %26, i64 %30
  %32 = load ptr, ptr %31, align 8, !tbaa !30
  store ptr %32, ptr %9, align 8, !tbaa !30
  call void @llvm.lifetime.start.p0(i64 8, ptr %10) #9
  call void @llvm.lifetime.start.p0(i64 8, ptr %11) #9
  %33 = load ptr, ptr %6, align 8, !tbaa !95
  %34 = getelementptr inbounds nuw %struct.OGGPage, ptr %33, i32 0, i32 1
  %35 = load i64, ptr %34, align 8, !tbaa !100
  %36 = icmp eq i64 %35, -1
  br i1 %36, label %42, label %37

37:                                               ; preds = %3
  %38 = load ptr, ptr %7, align 8, !tbaa !95
  %39 = getelementptr inbounds nuw %struct.OGGPage, ptr %38, i32 0, i32 1
  %40 = load i64, ptr %39, align 8, !tbaa !100
  %41 = icmp eq i64 %40, -1
  br i1 %41, label %42, label %43

42:                                               ; preds = %37, %3
  store i32 0, ptr %4, align 4
  store i32 1, ptr %12, align 4
  br label %76

43:                                               ; preds = %37
  %44 = load ptr, ptr %8, align 8, !tbaa !30
  %45 = getelementptr inbounds nuw %struct.AVStream, ptr %44, i32 0, i32 4
  %46 = load ptr, ptr %45, align 8, !tbaa !32
  %47 = load ptr, ptr %6, align 8, !tbaa !95
  %48 = getelementptr inbounds nuw %struct.OGGPage, ptr %47, i32 0, i32 1
  %49 = load i64, ptr %48, align 8, !tbaa !100
  %50 = call i64 @ogg_granule_to_timestamp(ptr noundef %46, i64 noundef %49)
  %51 = load ptr, ptr %8, align 8, !tbaa !30
  %52 = getelementptr inbounds nuw %struct.AVStream, ptr %51, i32 0, i32 5
  %53 = getelementptr inbounds nuw %struct.AVRational, ptr %13, i32 0, i32 0
  store i32 1, ptr %53, align 4, !tbaa !103
  %54 = getelementptr inbounds nuw %struct.AVRational, ptr %13, i32 0, i32 1
  store i32 1000000, ptr %54, align 4, !tbaa !104
  %55 = load i64, ptr %52, align 8
  %56 = load i64, ptr %13, align 4
  %57 = call i64 @av_rescale_q(i64 noundef %50, i64 %55, i64 %56) #10
  store i64 %57, ptr %10, align 8, !tbaa !91
  %58 = load ptr, ptr %9, align 8, !tbaa !30
  %59 = getelementptr inbounds nuw %struct.AVStream, ptr %58, i32 0, i32 4
  %60 = load ptr, ptr %59, align 8, !tbaa !32
  %61 = load ptr, ptr %7, align 8, !tbaa !95
  %62 = getelementptr inbounds nuw %struct.OGGPage, ptr %61, i32 0, i32 1
  %63 = load i64, ptr %62, align 8, !tbaa !100
  %64 = call i64 @ogg_granule_to_timestamp(ptr noundef %60, i64 noundef %63)
  %65 = load ptr, ptr %9, align 8, !tbaa !30
  %66 = getelementptr inbounds nuw %struct.AVStream, ptr %65, i32 0, i32 5
  %67 = getelementptr inbounds nuw %struct.AVRational, ptr %14, i32 0, i32 0
  store i32 1, ptr %67, align 4, !tbaa !103
  %68 = getelementptr inbounds nuw %struct.AVRational, ptr %14, i32 0, i32 1
  store i32 1000000, ptr %68, align 4, !tbaa !104
  %69 = load i64, ptr %66, align 8
  %70 = load i64, ptr %14, align 4
  %71 = call i64 @av_rescale_q(i64 noundef %64, i64 %69, i64 %70) #10
  store i64 %71, ptr %11, align 8, !tbaa !91
  %72 = load i64, ptr %10, align 8, !tbaa !91
  %73 = load i64, ptr %11, align 8, !tbaa !91
  %74 = icmp sgt i64 %72, %73
  %75 = zext i1 %74 to i32
  store i32 %75, ptr %4, align 4
  store i32 1, ptr %12, align 4
  br label %76

76:                                               ; preds = %43, %42
  call void @llvm.lifetime.end.p0(i64 8, ptr %11) #9
  call void @llvm.lifetime.end.p0(i64 8, ptr %10) #9
  call void @llvm.lifetime.end.p0(i64 8, ptr %9) #9
  call void @llvm.lifetime.end.p0(i64 8, ptr %8) #9
  %77 = load i32, ptr %4, align 4
  ret i32 %77
}

; Function Attrs: nounwind uwtable
define internal i32 @ogg_reset_cur_page(ptr noundef %0) #0 {
  %2 = alloca ptr, align 8
  store ptr %0, ptr %2, align 8, !tbaa !9
  %3 = load ptr, ptr %2, align 8, !tbaa !9
  %4 = getelementptr inbounds nuw %struct.OGGStreamContext, ptr %3, i32 0, i32 9
  %5 = getelementptr inbounds nuw %struct.OGGPage, ptr %4, i32 0, i32 1
  store i64 -1, ptr %5, align 8, !tbaa !93
  %6 = load ptr, ptr %2, align 8, !tbaa !9
  %7 = getelementptr inbounds nuw %struct.OGGStreamContext, ptr %6, i32 0, i32 9
  %8 = getelementptr inbounds nuw %struct.OGGPage, ptr %7, i32 0, i32 3
  store i8 0, ptr %8, align 4, !tbaa !40
  %9 = load ptr, ptr %2, align 8, !tbaa !9
  %10 = getelementptr inbounds nuw %struct.OGGStreamContext, ptr %9, i32 0, i32 9
  %11 = getelementptr inbounds nuw %struct.OGGPage, ptr %10, i32 0, i32 4
  store i8 0, ptr %11, align 1, !tbaa !53
  %12 = load ptr, ptr %2, align 8, !tbaa !9
  %13 = getelementptr inbounds nuw %struct.OGGStreamContext, ptr %12, i32 0, i32 9
  %14 = getelementptr inbounds nuw %struct.OGGPage, ptr %13, i32 0, i32 7
  store i16 0, ptr %14, align 2, !tbaa !94
  ret i32 0
}

; Function Attrs: nounwind uwtable
define internal i64 @ogg_granule_to_timestamp(ptr noundef %0, i64 noundef %1) #0 {
  %3 = alloca i64, align 8
  %4 = alloca ptr, align 8
  %5 = alloca i64, align 8
  store ptr %0, ptr %4, align 8, !tbaa !9
  store i64 %1, ptr %5, align 8, !tbaa !91
  %6 = load ptr, ptr %4, align 8, !tbaa !9
  %7 = getelementptr inbounds nuw %struct.OGGStreamContext, ptr %6, i32 0, i32 3
  %8 = load i32, ptr %7, align 4, !tbaa !82
  %9 = icmp ne i32 %8, 0
  br i1 %9, label %10, label %26

10:                                               ; preds = %2
  %11 = load i64, ptr %5, align 8, !tbaa !91
  %12 = load ptr, ptr %4, align 8, !tbaa !9
  %13 = getelementptr inbounds nuw %struct.OGGStreamContext, ptr %12, i32 0, i32 3
  %14 = load i32, ptr %13, align 4, !tbaa !82
  %15 = zext i32 %14 to i64
  %16 = ashr i64 %11, %15
  %17 = load i64, ptr %5, align 8, !tbaa !91
  %18 = load ptr, ptr %4, align 8, !tbaa !9
  %19 = getelementptr inbounds nuw %struct.OGGStreamContext, ptr %18, i32 0, i32 3
  %20 = load i32, ptr %19, align 4, !tbaa !82
  %21 = shl i32 1, %20
  %22 = sub nsw i32 %21, 1
  %23 = sext i32 %22 to i64
  %24 = and i64 %17, %23
  %25 = add nsw i64 %16, %24
  store i64 %25, ptr %3, align 8
  br label %36

26:                                               ; preds = %2
  %27 = load ptr, ptr %4, align 8, !tbaa !9
  %28 = getelementptr inbounds nuw %struct.OGGStreamContext, ptr %27, i32 0, i32 6
  %29 = load i32, ptr %28, align 4, !tbaa !115
  %30 = icmp ne i32 %29, 0
  br i1 %30, label %31, label %34

31:                                               ; preds = %26
  %32 = load i64, ptr %5, align 8, !tbaa !91
  %33 = ashr i64 %32, 32
  store i64 %33, ptr %3, align 8
  br label %36

34:                                               ; preds = %26
  %35 = load i64, ptr %5, align 8, !tbaa !91
  store i64 %35, ptr %3, align 8
  br label %36

36:                                               ; preds = %34, %31, %10
  %37 = load i64, ptr %3, align 8
  ret i64 %37
}

; Function Attrs: nounwind uwtable
define internal i32 @ogg_buffer_page(ptr noundef %0, ptr noundef %1) #0 {
  %3 = alloca i32, align 4
  %4 = alloca ptr, align 8
  %5 = alloca ptr, align 8
  %6 = alloca ptr, align 8
  %7 = alloca ptr, align 8
  %8 = alloca ptr, align 8
  %9 = alloca i32, align 4
  store ptr %0, ptr %4, align 8, !tbaa !4
  store ptr %1, ptr %5, align 8, !tbaa !9
  call void @llvm.lifetime.start.p0(i64 8, ptr %6) #9
  %10 = load ptr, ptr %4, align 8, !tbaa !4
  %11 = getelementptr inbounds nuw %struct.AVFormatContext, ptr %10, i32 0, i32 3
  %12 = load ptr, ptr %11, align 8, !tbaa !56
  store ptr %12, ptr %6, align 8, !tbaa !57
  call void @llvm.lifetime.start.p0(i64 8, ptr %7) #9
  %13 = load ptr, ptr %6, align 8, !tbaa !57
  %14 = getelementptr inbounds nuw %struct.OGGContext, ptr %13, i32 0, i32 1
  store ptr %14, ptr %7, align 8, !tbaa !107
  call void @llvm.lifetime.start.p0(i64 8, ptr %8) #9
  %15 = call noalias ptr @av_mallocz(i64 noundef 65312)
  store ptr %15, ptr %8, align 8, !tbaa !86
  %16 = load ptr, ptr %8, align 8, !tbaa !86
  %17 = icmp ne ptr %16, null
  br i1 %17, label %19, label %18

18:                                               ; preds = %2
  store i32 -12, ptr %3, align 4
  store i32 1, ptr %9, align 4
  br label %64

19:                                               ; preds = %2
  %20 = load ptr, ptr %8, align 8, !tbaa !86
  %21 = getelementptr inbounds nuw %struct.OGGPageList, ptr %20, i32 0, i32 0
  %22 = load ptr, ptr %5, align 8, !tbaa !9
  %23 = getelementptr inbounds nuw %struct.OGGStreamContext, ptr %22, i32 0, i32 9
  call void @llvm.memcpy.p0.p0.i64(ptr align 8 %21, ptr align 8 %23, i64 65304, i1 false), !tbaa.struct !109
  %24 = load ptr, ptr %5, align 8, !tbaa !9
  %25 = load ptr, ptr %5, align 8, !tbaa !9
  %26 = getelementptr inbounds nuw %struct.OGGStreamContext, ptr %25, i32 0, i32 9
  %27 = getelementptr inbounds nuw %struct.OGGPage, ptr %26, i32 0, i32 1
  %28 = load i64, ptr %27, align 8, !tbaa !93
  %29 = call i64 @ogg_granule_to_timestamp(ptr noundef %24, i64 noundef %28)
  %30 = load ptr, ptr %5, align 8, !tbaa !9
  %31 = getelementptr inbounds nuw %struct.OGGStreamContext, ptr %30, i32 0, i32 9
  %32 = getelementptr inbounds nuw %struct.OGGPage, ptr %31, i32 0, i32 0
  store i64 %29, ptr %32, align 8, !tbaa !48
  %33 = load ptr, ptr %5, align 8, !tbaa !9
  %34 = getelementptr inbounds nuw %struct.OGGStreamContext, ptr %33, i32 0, i32 8
  %35 = load i32, ptr %34, align 4, !tbaa !111
  %36 = add i32 %35, 1
  store i32 %36, ptr %34, align 4, !tbaa !111
  %37 = load ptr, ptr %5, align 8, !tbaa !9
  %38 = call i32 @ogg_reset_cur_page(ptr noundef %37)
  br label %39

39:                                               ; preds = %53, %19
  %40 = load ptr, ptr %7, align 8, !tbaa !107
  %41 = load ptr, ptr %40, align 8, !tbaa !86
  %42 = icmp ne ptr %41, null
  br i1 %42, label %43, label %57

43:                                               ; preds = %39
  %44 = load ptr, ptr %4, align 8, !tbaa !4
  %45 = load ptr, ptr %7, align 8, !tbaa !107
  %46 = load ptr, ptr %45, align 8, !tbaa !86
  %47 = getelementptr inbounds nuw %struct.OGGPageList, ptr %46, i32 0, i32 0
  %48 = load ptr, ptr %8, align 8, !tbaa !86
  %49 = getelementptr inbounds nuw %struct.OGGPageList, ptr %48, i32 0, i32 0
  %50 = call i32 @ogg_compare_granule(ptr noundef %44, ptr noundef %47, ptr noundef %49)
  %51 = icmp ne i32 %50, 0
  br i1 %51, label %52, label %53

52:                                               ; preds = %43
  br label %57

53:                                               ; preds = %43
  %54 = load ptr, ptr %7, align 8, !tbaa !107
  %55 = load ptr, ptr %54, align 8, !tbaa !86
  %56 = getelementptr inbounds nuw %struct.OGGPageList, ptr %55, i32 0, i32 1
  store ptr %56, ptr %7, align 8, !tbaa !107
  br label %39, !llvm.loop !112

57:                                               ; preds = %52, %39
  %58 = load ptr, ptr %7, align 8, !tbaa !107
  %59 = load ptr, ptr %58, align 8, !tbaa !86
  %60 = load ptr, ptr %8, align 8, !tbaa !86
  %61 = getelementptr inbounds nuw %struct.OGGPageList, ptr %60, i32 0, i32 1
  store ptr %59, ptr %61, align 8, !tbaa !88
  %62 = load ptr, ptr %8, align 8, !tbaa !86
  %63 = load ptr, ptr %7, align 8, !tbaa !107
  store ptr %62, ptr %63, align 8, !tbaa !86
  store i32 0, ptr %3, align 4
  store i32 1, ptr %9, align 4
  br label %64

64:                                               ; preds = %57, %18
  call void @llvm.lifetime.end.p0(i64 8, ptr %8) #9
  call void @llvm.lifetime.end.p0(i64 8, ptr %7) #9
  call void @llvm.lifetime.end.p0(i64 8, ptr %6) #9
  %65 = load i32, ptr %3, align 4
  ret i32 %65
}