; Function Attrs: nounwind uwtable
define internal fastcc void @ogg_buffer_page(ptr noundef readonly captures(none) %0, ptr noundef captures(none) %1) unnamed_addr #0 {
  %3 = getelementptr inbounds nuw i8, ptr %0, i64 24
  %4 = load ptr, ptr %3, align 8, !tbaa !51
  %5 = tail call noalias ptr @av_mallocz(i64 noundef 65312) #9
  %.not = icmp eq ptr %5, null
  br i1 %.not, label %89, label %6

6:                                                ; preds = %2
  %7 = getelementptr inbounds nuw i8, ptr %4, i64 8
  %8 = getelementptr inbounds nuw i8, ptr %1, i64 72
  tail call void @llvm.memcpy.p0.p0.i64(ptr noundef nonnull align 8 dereferenceable(65304) %5, ptr noundef nonnull align 8 dereferenceable(65304) %8, i64 65304, i1 false), !tbaa.struct !52
  %9 = getelementptr inbounds nuw i8, ptr %1, i64 80
  %10 = load i64, ptr %9, align 8, !tbaa !55
  %11 = getelementptr inbounds nuw i8, ptr %1, i64 44
  %12 = load i32, ptr %11, align 4, !tbaa !56
  %.not.i = icmp eq i32 %12, 0
  br i1 %.not.i, label %20, label %13

13:                                               ; preds = %6
  %14 = zext nneg i32 %12 to i64
  %15 = ashr i64 %10, %14
  %notmask.i = shl nsw i32 -1, %12
  %16 = xor i32 %notmask.i, -1
  %17 = zext nneg i32 %16 to i64
  %18 = and i64 %10, %17
  %19 = add nsw i64 %18, %15
  br label %ogg_granule_to_timestamp.exit

20:                                               ; preds = %6
  %21 = getelementptr inbounds nuw i8, ptr %1, i64 60
  %22 = load i32, ptr %21, align 4, !tbaa !57
  %.not9.i = icmp eq i32 %22, 0
  %23 = ashr i64 %10, 32
  %spec.select.i = select i1 %.not9.i, i64 %10, i64 %23
  br label %ogg_granule_to_timestamp.exit

ogg_granule_to_timestamp.exit:                    ; preds = %13, %20
  %.0.i = phi i64 [ %19, %13 ], [ %spec.select.i, %20 ]
  store i64 %.0.i, ptr %8, align 8, !tbaa !58
  %24 = getelementptr inbounds nuw i8, ptr %1, i64 68
  %25 = load i32, ptr %24, align 4, !tbaa !59
  %26 = add i32 %25, 1
  store i32 %26, ptr %24, align 4, !tbaa !59
  store i64 -1, ptr %9, align 8, !tbaa !55
  %27 = getelementptr inbounds nuw i8, ptr %1, i64 92
  store i8 0, ptr %27, align 4, !tbaa !40
  %28 = getelementptr inbounds nuw i8, ptr %1, i64 93
  store i8 0, ptr %28, align 1, !tbaa !60
  %29 = getelementptr inbounds nuw i8, ptr %1, i64 65374
  store i16 0, ptr %29, align 2, !tbaa !61
  %30 = load ptr, ptr %7, align 8, !tbaa !62
  %.not2230 = icmp eq ptr %30, null
  br i1 %.not2230, label %ogg_compare_granule.exit._crit_edge, label %.lr.ph

.lr.ph:                                           ; preds = %ogg_granule_to_timestamp.exit
  %31 = getelementptr i8, ptr %0, i64 48
  %.val = load ptr, ptr %31, align 8, !tbaa !24
  %32 = getelementptr inbounds nuw i8, ptr %5, i64 16
  %33 = load i32, ptr %32, align 8, !tbaa !64
  %34 = sext i32 %33 to i64
  %35 = getelementptr inbounds ptr, ptr %.val, i64 %34
  %36 = load ptr, ptr %35, align 8, !tbaa !25
  %37 = getelementptr inbounds nuw i8, ptr %5, i64 8
  %38 = getelementptr inbounds nuw i8, ptr %36, i64 24
  %39 = getelementptr inbounds nuw i8, ptr %36, i64 32
  br label %40

40:                                               ; preds = %.lr.ph, %ogg_compare_granule.exit.thread
  %41 = phi ptr [ %30, %.lr.ph ], [ %87, %ogg_compare_granule.exit.thread ]
  %.01931 = phi ptr [ %7, %.lr.ph ], [ %86, %ogg_compare_granule.exit.thread ]
  %42 = getelementptr i8, ptr %41, i64 8
  %.val24 = load i64, ptr %42, align 8, !tbaa !50
  %43 = getelementptr i8, ptr %41, i64 16
  %.val25 = load i32, ptr %43, align 8, !tbaa !64
  %44 = sext i32 %.val25 to i64
  %45 = getelementptr inbounds ptr, ptr %.val, i64 %44
  %46 = load ptr, ptr %45, align 8, !tbaa !25
  %47 = icmp eq i64 %.val24, -1
  br i1 %47, label %ogg_compare_granule.exit.thread, label %48

48:                                               ; preds = %40
  %49 = load i64, ptr %37, align 8, !tbaa !50
  %50 = icmp eq i64 %49, -1
  br i1 %50, label %ogg_compare_granule.exit.thread, label %51

51:                                               ; preds = %48
  %52 = getelementptr inbounds nuw i8, ptr %46, i64 24
  %53 = load ptr, ptr %52, align 8, !tbaa !27
  %54 = getelementptr inbounds nuw i8, ptr %53, i64 44
  %55 = load i32, ptr %54, align 4, !tbaa !56
  %.not.i.i = icmp eq i32 %55, 0
  br i1 %.not.i.i, label %63, label %56

56:                                               ; preds = %51
  %57 = zext nneg i32 %55 to i64
  %58 = ashr i64 %.val24, %57
  %notmask.i.i = shl nsw i32 -1, %55
  %59 = xor i32 %notmask.i.i, -1
  %60 = zext nneg i32 %59 to i64
  %61 = and i64 %.val24, %60
  %62 = add nsw i64 %61, %58
  br label %ogg_granule_to_timestamp.exit.i

63:                                               ; preds = %51
  %64 = getelementptr inbounds nuw i8, ptr %53, i64 60
  %65 = load i32, ptr %64, align 4, !tbaa !57
  %.not9.i.i = icmp eq i32 %65, 0
  %66 = ashr i64 %.val24, 32
  %spec.select.i.i = select i1 %.not9.i.i, i64 %.val24, i64 %66
  br label %ogg_granule_to_timestamp.exit.i

ogg_granule_to_timestamp.exit.i:                  ; preds = %63, %56
  %.0.i.i = phi i64 [ %62, %56 ], [ %spec.select.i.i, %63 ]
  %67 = getelementptr inbounds nuw i8, ptr %46, i64 32
  %68 = load i64, ptr %67, align 8
  %69 = tail call i64 @av_rescale_q(i64 noundef %.0.i.i, i64 %68, i64 4294967296000001) #10
  %70 = load ptr, ptr %38, align 8, !tbaa !27
  %71 = getelementptr inbounds nuw i8, ptr %70, i64 44
  %72 = load i32, ptr %71, align 4, !tbaa !56
  %.not.i17.i = icmp eq i32 %72, 0
  br i1 %.not.i17.i, label %80, label %73

73:                                               ; preds = %ogg_granule_to_timestamp.exit.i
  %74 = zext nneg i32 %72 to i64
  %75 = ashr i64 %49, %74
  %notmask.i18.i = shl nsw i32 -1, %72
  %76 = xor i32 %notmask.i18.i, -1
  %77 = zext nneg i32 %76 to i64
  %78 = and i64 %49, %77
  %79 = add nsw i64 %78, %75
  br label %ogg_compare_granule.exit

80:                                               ; preds = %ogg_granule_to_timestamp.exit.i
  %81 = getelementptr inbounds nuw i8, ptr %70, i64 60
  %82 = load i32, ptr %81, align 4, !tbaa !57
  %.not9.i20.i = icmp eq i32 %82, 0
  %83 = ashr i64 %49, 32
  %spec.select.i21.i = select i1 %.not9.i20.i, i64 %49, i64 %83
  br label %ogg_compare_granule.exit

ogg_compare_granule.exit:                         ; preds = %73, %80
  %.0.i19.i = phi i64 [ %79, %73 ], [ %spec.select.i21.i, %80 ]
  %84 = load i64, ptr %39, align 8
  %85 = tail call i64 @av_rescale_q(i64 noundef %.0.i19.i, i64 %84, i64 4294967296000001) #10
  %.not29 = icmp sgt i64 %69, %85
  br i1 %.not29, label %ogg_compare_granule.exit._crit_edge, label %ogg_compare_granule.exit.thread

ogg_compare_granule.exit.thread:                  ; preds = %40, %48, %ogg_compare_granule.exit
  %86 = getelementptr inbounds nuw i8, ptr %41, i64 65304
  %87 = load ptr, ptr %86, align 8, !tbaa !62
  %.not22 = icmp eq ptr %87, null
  br i1 %.not22, label %ogg_compare_granule.exit._crit_edge, label %40, !llvm.loop !65

ogg_compare_granule.exit._crit_edge:              ; preds = %ogg_compare_granule.exit.thread, %ogg_compare_granule.exit, %ogg_granule_to_timestamp.exit
  %.019.lcssa = phi ptr [ %7, %ogg_granule_to_timestamp.exit ], [ %.01931, %ogg_compare_granule.exit ], [ %86, %ogg_compare_granule.exit.thread ]
  %.lcssa = phi ptr [ null, %ogg_granule_to_timestamp.exit ], [ %41, %ogg_compare_granule.exit ], [ null, %ogg_compare_granule.exit.thread ]
  %88 = getelementptr inbounds nuw i8, ptr %5, i64 65304
  store ptr %.lcssa, ptr %88, align 8, !tbaa !66
  store ptr %5, ptr %.019.lcssa, align 8, !tbaa !62
  br label %89

89:                                               ; preds = %2, %ogg_compare_granule.exit._crit_edge
  ret void
}